; Function Attrs: mustprogress nounwind uwtable
define hidden noundef i64 @_ZN14CSpaceCounters10UsedHelper11take_sampleEv(ptr nocapture noundef nonnull readonly align 8 dereferenceable(16) %0) unnamed_addr #0 align 2 {
  %2 = load ptr, ptr @Heap_lock, align 8
  %3 = tail call noundef zeroext i1 @_ZN5Mutex8try_lockEv(ptr noundef nonnull align 8 dereferenceable(104) %2) #8
  br i1 %3, label %4, label %17

4:                                                ; preds = %1
  %5 = getelementptr inbounds i8, ptr %0, i64 8
  %6 = load ptr, ptr %5, align 8
  %7 = getelementptr inbounds i8, ptr %6, i64 32
  %8 = load ptr, ptr %7, align 8
  %9 = load ptr, ptr %8, align 8
  %10 = getelementptr inbounds i8, ptr %8, i64 16
  %11 = load ptr, ptr %10, align 8
  %12 = ptrtoint ptr %11 to i64
  %13 = ptrtoint ptr %9 to i64
  %14 = sub i64 %12, %13
  %15 = getelementptr inbounds i8, ptr %6, i64 24
  store volatile i64 %14, ptr %15, align 8
  %16 = load ptr, ptr @Heap_lock, align 8
  tail call void @_ZN5Mutex6unlockEv(ptr noundef nonnull align 8 dereferenceable(104) %16) #8
  br label %17

17:                                               ; preds = %4, %1
  %18 = getelementptr inbounds i8, ptr %0, i64 8
  %19 = load ptr, ptr %18, align 8
  %20 = getelementptr inbounds i8, ptr %19, i64 24
  %21 = load volatile i64, ptr %20, align 8
  ret i64 %21
}